; Function Attrs: mustprogress nounwind uwtable
define void @_ZN4LIEF5MachO7BuilderD2Ev(ptr nocapture noundef nonnull readonly align 8 dereferenceable(137) %0) unnamed_addr #1 align 2 personality ptr @__gxx_personality_v0 {
  %2 = getelementptr inbounds i8, ptr %0, i64 104
  %3 = load ptr, ptr %2, align 8
  %.not.i.i.i.i = icmp eq ptr %3, null
  br i1 %.not.i.i.i.i, label %_ZN4LIEF15vector_iostreamD2Ev.exit, label %4

4:                                                ; preds = %1
  tail call void @_ZdlPv(ptr noundef nonnull %3) #21
  br label %_ZN4LIEF15vector_iostreamD2Ev.exit

_ZN4LIEF15vector_iostreamD2Ev.exit:               ; preds = %1, %4
  %5 = getelementptr inbounds i8, ptr %0, i64 48
  %6 = load ptr, ptr %5, align 8
  %.not.i.i.i.i1 = icmp eq ptr %6, null
  br i1 %.not.i.i.i.i1, label %_ZN4LIEF15vector_iostreamD2Ev.exit2, label %7

7:                                                ; preds = %_ZN4LIEF15vector_iostreamD2Ev.exit
  tail call void @_ZdlPv(ptr noundef nonnull %6) #21
  br label %_ZN4LIEF15vector_iostreamD2Ev.exit2

_ZN4LIEF15vector_iostreamD2Ev.exit2:              ; preds = %_ZN4LIEF15vector_iostreamD2Ev.exit, %7
  %8 = load ptr, ptr %0, align 8
  %.not.i.i.i = icmp eq ptr %8, null
  br i1 %.not.i.i.i, label %_ZNSt6vectorIPN4LIEF5MachO6BinaryESaIS3_EED2Ev.exit, label %9

9:                                                ; preds = %_ZN4LIEF15vector_iostreamD2Ev.exit2
  tail call void @_ZdlPv(ptr noundef nonnull %8) #21
  br label %_ZNSt6vectorIPN4LIEF5MachO6BinaryESaIS3_EED2Ev.exit

_ZNSt6vectorIPN4LIEF5MachO6BinaryESaIS3_EED2Ev.exit: ; preds = %_ZN4LIEF15vector_iostreamD2Ev.exit2, %9
  ret void
}